target datalayout = "e-m:e-p270:32:32-p271:32:32-p272:64:64-i64:64-i128:128-f80:128-n8:16:32:64-S128"
target triple = "x86_64-pc-linux-gnu"

%struct.JNINativeInterface_ = type { ptr, ptr, ptr, ptr, ptr, ptr, ptr, ptr, ptr, ptr, ptr, ptr, ptr, ptr, ptr, ptr, ptr, ptr, ptr, ptr, ptr, ptr, ptr, ptr, ptr, ptr, ptr, ptr, ptr, ptr, ptr, ptr, ptr, ptr, ptr, ptr, ptr, ptr, ptr, ptr, ptr, ptr, ptr, ptr, ptr, ptr, ptr, ptr, ptr, ptr, ptr, ptr, ptr, ptr, ptr, ptr, ptr, ptr, ptr, ptr, ptr, ptr, ptr, ptr, ptr, ptr, ptr, ptr, ptr, ptr, ptr, ptr, ptr, ptr, ptr, ptr, ptr, ptr, ptr, ptr, ptr, ptr, ptr, ptr, ptr, ptr, ptr, ptr, ptr, ptr, ptr, ptr, ptr, ptr, ptr, ptr, ptr, ptr, ptr, ptr, ptr, ptr, ptr, ptr, ptr, ptr, ptr, ptr, ptr, ptr, ptr, ptr, ptr, ptr, ptr, ptr, ptr, ptr, ptr, ptr, ptr, ptr, ptr, ptr, ptr, ptr, ptr, ptr, ptr, ptr, ptr, ptr, ptr, ptr, ptr, ptr, ptr, ptr, ptr, ptr, ptr, ptr, ptr, ptr, ptr, ptr, ptr, ptr, ptr, ptr, ptr, ptr, ptr, ptr, ptr, ptr, ptr, ptr, ptr, ptr, ptr, ptr, ptr, ptr, ptr, ptr, ptr, ptr, ptr, ptr, ptr, ptr, ptr, ptr, ptr, ptr, ptr, ptr, ptr, ptr, ptr, ptr, ptr, ptr, ptr, ptr, ptr, ptr, ptr, ptr, ptr, ptr, ptr, ptr, ptr, ptr, ptr, ptr, ptr, ptr, ptr, ptr, ptr, ptr, ptr, ptr, ptr, ptr, ptr, ptr, ptr, ptr, ptr, ptr, ptr, ptr, ptr, ptr, ptr, ptr, ptr, ptr, ptr, ptr, ptr, ptr, ptr, ptr, ptr, ptr, ptr, ptr, ptr, ptr, ptr }

@awt_display = external global ptr, align 8

; Function Attrs: nounwind uwtable
define void @Java_sun_java2d_xr_XRBackendNative_XRFreeGlyphsNative(ptr noundef %0, ptr noundef %1, i32 noundef %2, ptr noundef %3, i32 noundef %4) #0 {
  %6 = alloca ptr, align 8
  %7 = alloca ptr, align 8
  %8 = alloca i32, align 4
  %9 = alloca ptr, align 8
  %10 = alloca i32, align 4
  %11 = alloca [64 x i64], align 16
  %12 = alloca ptr, align 8
  %13 = alloca ptr, align 8
  %14 = alloca i32, align 4
  store ptr %0, ptr %6, align 8
  store ptr %1, ptr %7, align 8
  store i32 %2, ptr %8, align 4
  store ptr %3, ptr %9, align 8
  store i32 %4, ptr %10, align 4
  %15 = load i32, ptr %10, align 4
  %16 = zext i32 %15 to i64
  %17 = icmp ult i64 32763, %16
  br i1 %17, label %18, label %19

18:                                               ; preds = %5
  br label %87

19:                                               ; preds = %5
  store ptr null, ptr %12, align 8
  store ptr null, ptr %13, align 8
  %20 = load i32, ptr %10, align 4
  %21 = icmp sle i32 %20, 64
  br i1 %21, label %22, label %24

22:                                               ; preds = %19
  %23 = getelementptr inbounds [64 x i64], ptr %11, i64 0, i64 0
  store ptr %23, ptr %12, align 8
  br label %33

24:                                               ; preds = %19
  %25 = load i32, ptr %10, align 4
  %26 = sext i32 %25 to i64
  %27 = mul i64 8, %26
  %28 = call noalias ptr @malloc(i64 noundef %27) #9
  store ptr %28, ptr %12, align 8
  %29 = load ptr, ptr %12, align 8
  %30 = icmp eq ptr %29, null
  br i1 %30, label %31, label %32

31:                                               ; preds = %24
  br label %87

32:                                               ; preds = %24
  br label %33

33:                                               ; preds = %32, %22
  %34 = load ptr, ptr %6, align 8
  %35 = load ptr, ptr %34, align 8
  %36 = getelementptr inbounds %struct.JNINativeInterface_, ptr %35, i32 0, i32 222
  %37 = load ptr, ptr %36, align 8
  %38 = load ptr, ptr %6, align 8
  %39 = load ptr, ptr %9, align 8
  %40 = call ptr %37(ptr noundef %38, ptr noundef %39, ptr noundef null)
  store ptr %40, ptr %13, align 8
  %41 = load ptr, ptr %13, align 8
  %42 = icmp eq ptr %41, null
  br i1 %42, label %43, label %50

43:                                               ; preds = %33
  %44 = load ptr, ptr %12, align 8
  %45 = getelementptr inbounds [64 x i64], ptr %11, i64 0, i64 0
  %46 = icmp ne ptr %44, %45
  br i1 %46, label %47, label %49

47:                                               ; preds = %43
  %48 = load ptr, ptr %12, align 8
  call void @free(ptr noundef %48) #7
  br label %49

49:                                               ; preds = %47, %43
  br label %87

50:                                               ; preds = %33
  store i32 0, ptr %14, align 4
  br label %51

51:                                               ; preds = %66, %50
  %52 = load i32, ptr %14, align 4
  %53 = load i32, ptr %10, align 4
  %54 = icmp slt i32 %52, %53
  br i1 %54, label %55, label %69

55:                                               ; preds = %51
  %56 = load ptr, ptr %13, align 8
  %57 = load i32, ptr %14, align 4
  %58 = sext i32 %57 to i64
  %59 = getelementptr inbounds i32, ptr %56, i64 %58
  %60 = load i32, ptr %59, align 4
  %61 = sext i32 %60 to i64
  %62 = load ptr, ptr %12, align 8
  %63 = load i32, ptr %14, align 4
  %64 = sext i32 %63 to i64
  %65 = getelementptr inbounds i64, ptr %62, i64 %64
  store i64 %61, ptr %65, align 8
  br label %66

66:                                               ; preds = %55
  %67 = load i32, ptr %14, align 4
  %68 = add nsw i32 %67, 1
  store i32 %68, ptr %14, align 4
  br label %51, !llvm.loop !17

69:                                               ; preds = %51
  %70 = load ptr, ptr @awt_display, align 8
  %71 = load i32, ptr %8, align 4
  %72 = sext i32 %71 to i64
  %73 = load ptr, ptr %12, align 8
  %74 = load i32, ptr %10, align 4
  call void @XRenderFreeGlyphs(ptr noundef %70, i64 noundef %72, ptr noundef %73, i32 noundef %74)
  %75 = load ptr, ptr %6, align 8
  %76 = load ptr, ptr %75, align 8
  %77 = getelementptr inbounds %struct.JNINativeInterface_, ptr %76, i32 0, i32 223
  %78 = load ptr, ptr %77, align 8
  %79 = load ptr, ptr %6, align 8
  %80 = load ptr, ptr %9, align 8
  %81 = load ptr, ptr %13, align 8
  call void %78(ptr noundef %79, ptr noundef %80, ptr noundef %81, i32 noundef 2)
  %82 = load ptr, ptr %12, align 8
  %83 = getelementptr inbounds [64 x i64], ptr %11, i64 0, i64 0
  %84 = icmp ne ptr %82, %83
  br i1 %84, label %85, label %87

85:                                               ; preds = %69
  %86 = load ptr, ptr %12, align 8
  call void @free(ptr noundef %86) #7
  br label %87

87:                                               ; preds = %85, %69, %49, %31, %18
  ret void
}