; Function Attrs: nounwind uwtable
define void @Java_sun_java2d_xr_XRBackendNative_XRFreeGlyphsNative(ptr noundef %0, ptr nocapture noundef readnone %1, i32 noundef %2, ptr noundef %3, i32 noundef %4) local_unnamed_addr #0 {
  %6 = alloca [64 x i64], align 16
  %7 = icmp ugt i32 %4, 32763
  br i1 %7, label %31, label %8

8:                                                ; preds = %5
  %9 = icmp ult i32 %4, 65
  br i1 %9, label %15, label %10

10:                                               ; preds = %8
  %11 = shl nuw nsw i32 %4, 3
  %12 = zext nneg i32 %11 to i64
  %13 = tail call noalias ptr @malloc(i64 noundef %12) #16
  %14 = icmp eq ptr %13, null
  br i1 %14, label %31, label %15

15:                                               ; preds = %8, %10
  %.025 = phi ptr [ %13, %10 ], [ %6, %8 ]
  %16 = load ptr, ptr %0, align 8
  %17 = getelementptr inbounds i8, ptr %16, i64 1776
  %18 = load ptr, ptr %17, align 8
  %19 = tail call ptr %18(ptr noundef nonnull %0, ptr noundef %3, ptr noundef null) #14
  %20 = icmp eq ptr %19, null
  br i1 %20, label %21, label %.preheader

.preheader:                                       ; preds = %15
  %.not31 = icmp eq i32 %4, 0
  br i1 %.not31, label %._crit_edge, label %.lr.ph.preheader

.lr.ph.preheader:                                 ; preds = %.preheader
  %wide.trip.count = zext nneg i32 %4 to i64
  br label %.lr.ph

21:                                               ; preds = %15
  %.not29 = icmp eq ptr %.025, %6
  br i1 %.not29, label %31, label %.sink.split

.lr.ph:                                           ; preds = %.lr.ph.preheader, %.lr.ph
  %indvars.iv = phi i64 [ 0, %.lr.ph.preheader ], [ %indvars.iv.next, %.lr.ph ]
  %22 = getelementptr inbounds i32, ptr %19, i64 %indvars.iv
  %23 = load i32, ptr %22, align 4
  %24 = sext i32 %23 to i64
  %25 = getelementptr inbounds i64, ptr %.025, i64 %indvars.iv
  store i64 %24, ptr %25, align 8
  %indvars.iv.next = add nuw nsw i64 %indvars.iv, 1
  %exitcond.not = icmp eq i64 %indvars.iv.next, %wide.trip.count
  br i1 %exitcond.not, label %._crit_edge, label %.lr.ph, !llvm.loop !17

._crit_edge:                                      ; preds = %.lr.ph, %.preheader
  %26 = load ptr, ptr @awt_display, align 8
  %27 = sext i32 %2 to i64
  call void @XRenderFreeGlyphs(ptr noundef %26, i64 noundef %27, ptr noundef nonnull %.025, i32 noundef %4) #14
  %28 = load ptr, ptr %0, align 8
  %29 = getelementptr inbounds i8, ptr %28, i64 1784
  %30 = load ptr, ptr %29, align 8
  call void %30(ptr noundef nonnull %0, ptr noundef %3, ptr noundef nonnull %19, i32 noundef 2) #14
  %.not = icmp eq ptr %.025, %6
  br i1 %.not, label %31, label %.sink.split

.sink.split:                                      ; preds = %._crit_edge, %21
  call void @free(ptr noundef nonnull %.025) #14
  br label %31

31:                                               ; preds = %.sink.split, %21, %10, %5, %._crit_edge
  ret void
}